#include <math.h>
#include <stdio.h>
#include <stdlib.h>
#include <string.h>
#define LEN 100
#define ASCII 100
#define MAX_N 100
#define MAX_N 100
#define L 100
#define MAX 100
#define ASC 100
#define null 0
#define Len 100
#define M 100
#define SUM 100
#define NUMBER 100
#define SIZE 100
#define N 100
#define Max 100
#define X 100
#define Y 100
#define A 100
#define MAXN 100
#define MAXSIZE 100

int main(int argc, char* argv[])
{
	int n,i,j,m,b=0,max;
	int let[26]={0};
	char a;
	struct student{
		int num;
		char name[26];
	}book[999];
	scanf("%d",&n);
	for(i=0;i<n;i++){
		scanf("%d%s",&book[i].num,&book[i].name);
	}
	for(i=0;i<n;i++){
		m=strlen(book[i].name);
		for(j=0;j<m;j++){
			let[book[i].name[j]-'A']++;
		}
	}
	max=let[0];
	for(i=0;i<25;i++){
		if(let[i]>max){
			max=let[i];
			b=i;
		}
	}
	a=b+'A';
	printf("%c\n%d\n",a,max);
	for(i=0;i<n;i++){
		m=strlen(book[i].name);
		for(j=0;j<m;j++){
			if(book[i].name[j]==a){
				printf("%d\n",book[i].num);
			}
		}
	}
	return 0;
}
